; Function Attrs: mustprogress uwtable
define void @_ZN7jsonnet8internal12CompilerPass5visitEPNS0_5ArrayE(ptr noundef nonnull align 8 dereferenceable(16) %0, ptr noundef %1) unnamed_addr #4 align 2 {
  %3 = getelementptr inbounds nuw i8, ptr %1, i64 128
  %4 = load ptr, ptr %3, align 8, !tbaa !65
  %5 = getelementptr inbounds nuw i8, ptr %1, i64 136
  %6 = load ptr, ptr %5, align 8, !tbaa !65
  %.not10 = icmp eq ptr %4, %6
  br i1 %.not10, label %._crit_edge, label %.lr.ph

._crit_edge:                                      ; preds = %.lr.ph, %2
  %7 = getelementptr inbounds nuw i8, ptr %1, i64 160
  %8 = load ptr, ptr %0, align 8, !tbaa !17
  %9 = getelementptr inbounds nuw i8, ptr %8, i64 8
  %10 = load ptr, ptr %9, align 8
  tail call void %10(ptr noundef nonnull align 8 dereferenceable(16) %0, ptr noundef nonnull align 8 dereferenceable(24) %7)
  ret void

.lr.ph:                                           ; preds = %2, %.lr.ph
  %.sroa.07.011 = phi ptr [ %18, %.lr.ph ], [ %4, %2 ]
  %11 = load ptr, ptr %0, align 8, !tbaa !17
  %12 = getelementptr inbounds nuw i8, ptr %11, i64 48
  %13 = load ptr, ptr %12, align 8
  tail call void %13(ptr noundef nonnull align 8 dereferenceable(16) %0, ptr noundef nonnull align 8 dereferenceable(8) %.sroa.07.011)
  %14 = getelementptr inbounds nuw i8, ptr %.sroa.07.011, i64 8
  %15 = load ptr, ptr %0, align 8, !tbaa !17
  %16 = getelementptr inbounds nuw i8, ptr %15, i64 8
  %17 = load ptr, ptr %16, align 8
  tail call void %17(ptr noundef nonnull align 8 dereferenceable(16) %0, ptr noundef nonnull align 8 dereferenceable(24) %14)
  %18 = getelementptr inbounds nuw i8, ptr %.sroa.07.011, i64 32
  %.not = icmp eq ptr %18, %6
  br i1 %.not, label %._crit_edge, label %.lr.ph
}